---
triple:          'arm64-apple-darwin'
binary-path:     'build/snake_term'
relocations:
  - { offsetInCU: 0x26, offset: 0x26, size: 0x8, addend: 0x0, symName: __ZN3s2110Controller10gameLoop_cEv, symObjAddr: 0x0, symBinAddr: 0x100002AC4, symSize: 0x6B0 }
  - { offsetInCU: 0x3B, offset: 0x3B, size: 0x8, addend: 0x0, symName: _.str, symObjAddr: 0xDE0, symBinAddr: 0x10000AD40, symSize: 0x0 }
  - { offsetInCU: 0x6B, offset: 0x6B, size: 0x8, addend: 0x0, symName: _.str.1, symObjAddr: 0xE20, symBinAddr: 0x10000AD80, symSize: 0x0 }
  - { offsetInCU: 0x88, offset: 0x88, size: 0x8, addend: 0x0, symName: _.str.2, symObjAddr: 0xE40, symBinAddr: 0x10000ADA0, symSize: 0x0 }
  - { offsetInCU: 0x51F, offset: 0x51F, size: 0x8, addend: 0x0, symName: __ZN3s2110Controller10gameLoop_cEv, symObjAddr: 0x0, symBinAddr: 0x100002AC4, symSize: 0x6B0 }
  - { offsetInCU: 0x561, offset: 0x561, size: 0x8, addend: 0x0, symName: __ZN3s2110Controller18updateCurrentStateEv, symObjAddr: 0x6B0, symBinAddr: 0x100003174, symSize: 0x6C }
  - { offsetInCU: 0x595, offset: 0x595, size: 0x8, addend: 0x0, symName: __ZN3s2110Controller9userInputE12UserAction_tb, symObjAddr: 0x71C, symBinAddr: 0x1000031E0, symSize: 0x1E0 }
  - { offsetInCU: 0x5E5, offset: 0x5E5, size: 0x8, addend: 0x0, symName: __ZN3s2110Controller12getGravity_cEi, symObjAddr: 0x924, symBinAddr: 0x1000033E8, symSize: 0x6C }
  - { offsetInCU: 0x619, offset: 0x619, size: 0x8, addend: 0x0, symName: __ZN3s2110Controller10moveWorm_cEv, symObjAddr: 0x990, symBinAddr: 0x100003454, symSize: 0x64 }
  - { offsetInCU: 0x63F, offset: 0x63F, size: 0x8, addend: 0x0, symName: __ZN3s2110Controller11startGame_cEv, symObjAddr: 0x9F4, symBinAddr: 0x1000034B8, symSize: 0x64 }
  - { offsetInCU: 0x665, offset: 0x665, size: 0x8, addend: 0x0, symName: __ZN3s2110Controller4quitEv, symObjAddr: 0xA58, symBinAddr: 0x10000351C, symSize: 0x13C }
  - { offsetInCU: 0x6A7, offset: 0x6A7, size: 0x8, addend: 0x0, symName: __ZN3s2110Controller12moveFaster_cEv, symObjAddr: 0xB94, symBinAddr: 0x100003658, symSize: 0x64 }
  - { offsetInCU: 0x6CD, offset: 0x6CD, size: 0x8, addend: 0x0, symName: __ZN3s2110Controller11pauseGame_cEv, symObjAddr: 0xBF8, symBinAddr: 0x1000036BC, symSize: 0x64 }
  - { offsetInCU: 0x6F3, offset: 0x6F3, size: 0x8, addend: 0x0, symName: __ZN3s2110Controller17changeDirection_cE12UserAction_t, symObjAddr: 0xC5C, symBinAddr: 0x100003720, symSize: 0x6C }
  - { offsetInCU: 0x727, offset: 0x727, size: 0x8, addend: 0x0, symName: __ZN3s2110Controller17TerminatePushed_cEv, symObjAddr: 0xCC8, symBinAddr: 0x10000378C, symSize: 0x64 }
  - { offsetInCU: 0x1E2, offset: 0xB26, size: 0x8, addend: 0x0, symName: __ZN3s215Model13getGameInfo_sEv, symObjAddr: 0x0, symBinAddr: 0x100003888, symSize: 0x6FC }
  - { offsetInCU: 0x207, offset: 0xB4B, size: 0x8, addend: 0x0, symName: __ZZN3s215Model13getGameInfo_sEvE5stats, symObjAddr: 0x1A8E0, symBinAddr: 0x100010340, symSize: 0x0 }
  - { offsetInCU: 0x241, offset: 0xB85, size: 0x8, addend: 0x0, symName: _.str, symObjAddr: 0x5EE0, symBinAddr: 0x10000ADC0, symSize: 0x0 }
  - { offsetInCU: 0x271, offset: 0xBB5, size: 0x8, addend: 0x0, symName: _.str.1, symObjAddr: 0x5F20, symBinAddr: 0x10000AE00, symSize: 0x0 }
  - { offsetInCU: 0x28E, offset: 0xBD2, size: 0x8, addend: 0x0, symName: _.str.2, symObjAddr: 0x5F40, symBinAddr: 0x10000AE20, symSize: 0x0 }
  - { offsetInCU: 0x2A0, offset: 0xBE4, size: 0x8, addend: 0x0, symName: _.str.3, symObjAddr: 0x5F60, symBinAddr: 0x10000AE40, symSize: 0x0 }
  - { offsetInCU: 0x2BD, offset: 0xC01, size: 0x8, addend: 0x0, symName: _.str.4, symObjAddr: 0x5FC0, symBinAddr: 0x10000AEA0, symSize: 0x0 }
  - { offsetInCU: 0x359E, offset: 0x3EE2, size: 0x8, addend: 0x0, symName: __ZNSt3__118__constexpr_strlenB8ue170006EPKc, symObjAddr: 0x5C88, symBinAddr: 0x100009510, symSize: 0x24 }
  - { offsetInCU: 0x5945, offset: 0x6289, size: 0x8, addend: 0x0, symName: __ZN3s215Model9errorQuitEv, symObjAddr: 0x6FC, symBinAddr: 0x100003F84, symSize: 0x28 }
  - { offsetInCU: 0x596C, offset: 0x62B0, size: 0x8, addend: 0x0, symName: __ZN3s215Model9startGameEv, symObjAddr: 0x724, symBinAddr: 0x100003FAC, symSize: 0x3E4 }
  - { offsetInCU: 0x59C3, offset: 0x6307, size: 0x8, addend: 0x0, symName: __ZN3s215Model8initWormEv, symObjAddr: 0xB08, symBinAddr: 0x100004390, symSize: 0x2CC }
  - { offsetInCU: 0x5A21, offset: 0x6365, size: 0x8, addend: 0x0, symName: __ZN3s215Model9playAgainEv, symObjAddr: 0xDD4, symBinAddr: 0x10000465C, symSize: 0x2C0 }
  - { offsetInCU: 0x5A55, offset: 0x6399, size: 0x8, addend: 0x0, symName: __ZN3s215Model9placeFoodEv, symObjAddr: 0x1094, symBinAddr: 0x10000491C, symSize: 0x7B8 }
  - { offsetInCU: 0x5AF4, offset: 0x6438, size: 0x8, addend: 0x0, symName: __ZN3s215Model16putFigureOnFieldEv, symObjAddr: 0x184C, symBinAddr: 0x1000050D4, symSize: 0x5D0 }
  - { offsetInCU: 0x5B52, offset: 0x6496, size: 0x8, addend: 0x0, symName: __ZNSt3__123mersenne_twister_engineIjLm32ELm624ELm397ELm31ELj2567483615ELm11ELj4294967295ELm7ELj2636928640ELm15ELj4022730752ELm18ELj1812433253EEC1B8ue170006Ev, symObjAddr: 0x1E1C, symBinAddr: 0x1000056A4, symSize: 0x30 }
  - { offsetInCU: 0x5D0B, offset: 0x664F, size: 0x8, addend: 0x0, symName: __ZNSt3__113random_deviceC1B8ue170006Ev, symObjAddr: 0x1E4C, symBinAddr: 0x1000056D4, symSize: 0x2E0 }
  - { offsetInCU: 0x5D34, offset: 0x6678, size: 0x8, addend: 0x0, symName: __ZNSt3__123mersenne_twister_engineIjLm32ELm624ELm397ELm31ELj2567483615ELm11ELj4294967295ELm7ELj2636928640ELm15ELj4022730752ELm18ELj1812433253EE4seedEj, symObjAddr: 0x212C, symBinAddr: 0x1000059B4, symSize: 0x294 }
  - { offsetInCU: 0x5D85, offset: 0x66C9, size: 0x8, addend: 0x0, symName: __ZNSt3__123mersenne_twister_engineIjLm32ELm624ELm397ELm31ELj2567483615ELm11ELj4294967295ELm7ELj2636928640ELm15ELj4022730752ELm18ELj1812433253EEclEv, symObjAddr: 0x23C0, symBinAddr: 0x100005C48, symSize: 0x538 }
  - { offsetInCU: 0x5DF6, offset: 0x673A, size: 0x8, addend: 0x0, symName: __ZN3s215Model11moveWormDirEv, symObjAddr: 0x28F8, symBinAddr: 0x100006180, symSize: 0x644 }
  - { offsetInCU: 0x5E46, offset: 0x678A, size: 0x8, addend: 0x0, symName: __ZN3s215Model8moveWormEv, symObjAddr: 0x2F3C, symBinAddr: 0x1000067C4, symSize: 0x10A0 }
  - { offsetInCU: 0x5EE2, offset: 0x6826, size: 0x8, addend: 0x0, symName: __ZN3s215Model15rmWormFromFieldEv, symObjAddr: 0x3FDC, symBinAddr: 0x100007864, symSize: 0x32C }
  - { offsetInCU: 0x5F5C, offset: 0x68A0, size: 0x8, addend: 0x0, symName: __ZN3s215Model7mayItGoEi, symObjAddr: 0x4308, symBinAddr: 0x100007B90, symSize: 0x370 }
  - { offsetInCU: 0x5F9E, offset: 0x68E2, size: 0x8, addend: 0x0, symName: __ZN3s215Model15TerminatePushedEv, symObjAddr: 0x4678, symBinAddr: 0x100007F00, symSize: 0x684 }
  - { offsetInCU: 0x6042, offset: 0x6986, size: 0x8, addend: 0x0, symName: __ZN3s215Model15changeDirectionE12UserAction_t, symObjAddr: 0x4CFC, symBinAddr: 0x100008584, symSize: 0x468 }
  - { offsetInCU: 0x6084, offset: 0x69C8, size: 0x8, addend: 0x0, symName: __ZN3s215Model10moveFasterEv, symObjAddr: 0x5164, symBinAddr: 0x1000089EC, symSize: 0x228 }
  - { offsetInCU: 0x60B8, offset: 0x69FC, size: 0x8, addend: 0x0, symName: __ZN3s215Model9pauseGameEv, symObjAddr: 0x538C, symBinAddr: 0x100008C14, symSize: 0x18C }
  - { offsetInCU: 0x60EC, offset: 0x6A30, size: 0x8, addend: 0x0, symName: __ZN3s215Model10getGravityEi, symObjAddr: 0x5518, symBinAddr: 0x100008DA0, symSize: 0x290 }
  - { offsetInCU: 0x6134, offset: 0x6A78, size: 0x8, addend: 0x0, symName: __ZN3s215Model7freeMapEv, symObjAddr: 0x57A8, symBinAddr: 0x100009030, symSize: 0x164 }
  - { offsetInCU: 0x618C, offset: 0x6AD0, size: 0x8, addend: 0x0, symName: __ZNSt3__112basic_stringIcNS_11char_traitsIcEENS_9allocatorIcEEEC1B8ue170006ILi0EEEPKc, symObjAddr: 0x590C, symBinAddr: 0x100009194, symSize: 0x34 }
  - { offsetInCU: 0x61C9, offset: 0x6B0D, size: 0x8, addend: 0x0, symName: __ZNSt3__112basic_stringIcNS_11char_traitsIcEENS_9allocatorIcEEEC2B8ue170006ILi0EEEPKc, symObjAddr: 0x5940, symBinAddr: 0x1000091C8, symSize: 0x210 }
  - { offsetInCU: 0x620D, offset: 0x6B51, size: 0x8, addend: 0x0, symName: __ZNSt3__117__compressed_pairINS_12basic_stringIcNS_11char_traitsIcEENS_9allocatorIcEEE5__repES5_EC1B8ue170006INS_18__default_init_tagESA_EEOT_OT0_, symObjAddr: 0x5B50, symBinAddr: 0x1000093D8, symSize: 0x3C }
  - { offsetInCU: 0x6263, offset: 0x6BA7, size: 0x8, addend: 0x0, symName: __ZNSt3__111char_traitsIcE6lengthB8ue170006EPKc, symObjAddr: 0x5B8C, symBinAddr: 0x100009414, symSize: 0x40 }
  - { offsetInCU: 0x6285, offset: 0x6BC9, size: 0x8, addend: 0x0, symName: __ZNSt3__117__compressed_pairINS_12basic_stringIcNS_11char_traitsIcEENS_9allocatorIcEEE5__repES5_EC2B8ue170006INS_18__default_init_tagESA_EEOT_OT0_, symObjAddr: 0x5BCC, symBinAddr: 0x100009454, symSize: 0x3C }
  - { offsetInCU: 0x62DB, offset: 0x6C1F, size: 0x8, addend: 0x0, symName: __ZNSt3__122__compressed_pair_elemINS_12basic_stringIcNS_11char_traitsIcEENS_9allocatorIcEEE5__repELi0ELb0EEC2B8ue170006ENS_18__default_init_tagE, symObjAddr: 0x5C08, symBinAddr: 0x100009490, symSize: 0x14 }
  - { offsetInCU: 0x630D, offset: 0x6C51, size: 0x8, addend: 0x0, symName: __ZNSt3__122__compressed_pair_elemINS_9allocatorIcEELi1ELb1EEC2B8ue170006ENS_18__default_init_tagE, symObjAddr: 0x5C1C, symBinAddr: 0x1000094A4, symSize: 0x2C }
  - { offsetInCU: 0x633F, offset: 0x6C83, size: 0x8, addend: 0x0, symName: __ZNSt3__19allocatorIcEC2B8ue170006Ev, symObjAddr: 0x5C48, symBinAddr: 0x1000094D0, symSize: 0x2C }
  - { offsetInCU: 0x6367, offset: 0x6CAB, size: 0x8, addend: 0x0, symName: __ZNSt3__116__non_trivial_ifILb1ENS_9allocatorIcEEEC2B8ue170006Ev, symObjAddr: 0x5C74, symBinAddr: 0x1000094FC, symSize: 0x14 }
  - { offsetInCU: 0x638F, offset: 0x6CD3, size: 0x8, addend: 0x0, symName: __ZNSt3__123mersenne_twister_engineIjLm32ELm624ELm397ELm31ELj2567483615ELm11ELj4294967295ELm7ELj2636928640ELm15ELj4022730752ELm18ELj1812433253EEC1B8ue170006Ej, symObjAddr: 0x5CB8, symBinAddr: 0x100009540, symSize: 0x34 }
  - { offsetInCU: 0x63C5, offset: 0x6D09, size: 0x8, addend: 0x0, symName: __ZNSt3__123mersenne_twister_engineIjLm32ELm624ELm397ELm31ELj2567483615ELm11ELj4294967295ELm7ELj2636928640ELm15ELj4022730752ELm18ELj1812433253EEC2B8ue170006Ej, symObjAddr: 0x5CEC, symBinAddr: 0x100009574, symSize: 0x34 }
  - { offsetInCU: 0x63FB, offset: 0x6D3F, size: 0x8, addend: 0x0, symName: __ZNSt3__123mersenne_twister_engineIjLm32ELm624ELm397ELm31ELj2567483615ELm11ELj4294967295ELm7ELj2636928640ELm15ELj4022730752ELm18ELj1812433253EE8__rshiftB8ue170006ILm30EEENS_9enable_ifIXltT_L_ZNS1_3_DtEEEjE4typeEj, symObjAddr: 0x5D20, symBinAddr: 0x1000095A8, symSize: 0x18 }
  - { offsetInCU: 0x6427, offset: 0x6D6B, size: 0x8, addend: 0x0, symName: __ZNSt3__123mersenne_twister_engineIjLm32ELm624ELm397ELm31ELj2567483615ELm11ELj4294967295ELm7ELj2636928640ELm15ELj4022730752ELm18ELj1812433253EE8__rshiftB8ue170006ILm1EEENS_9enable_ifIXltT_L_ZNS1_3_DtEEEjE4typeEj, symObjAddr: 0x5D38, symBinAddr: 0x1000095C0, symSize: 0x18 }
  - { offsetInCU: 0x6453, offset: 0x6D97, size: 0x8, addend: 0x0, symName: __ZNSt3__123mersenne_twister_engineIjLm32ELm624ELm397ELm31ELj2567483615ELm11ELj4294967295ELm7ELj2636928640ELm15ELj4022730752ELm18ELj1812433253EE8__rshiftB8ue170006ILm11EEENS_9enable_ifIXltT_L_ZNS1_3_DtEEEjE4typeEj, symObjAddr: 0x5D50, symBinAddr: 0x1000095D8, symSize: 0x18 }
  - { offsetInCU: 0x647F, offset: 0x6DC3, size: 0x8, addend: 0x0, symName: __ZNSt3__123mersenne_twister_engineIjLm32ELm624ELm397ELm31ELj2567483615ELm11ELj4294967295ELm7ELj2636928640ELm15ELj4022730752ELm18ELj1812433253EE8__lshiftB8ue170006ILm7EEENS_9enable_ifIXltT_Lm32EEjE4typeEj, symObjAddr: 0x5D68, symBinAddr: 0x1000095F0, symSize: 0x1C }
  - { offsetInCU: 0x64AB, offset: 0x6DEF, size: 0x8, addend: 0x0, symName: __ZNSt3__123mersenne_twister_engineIjLm32ELm624ELm397ELm31ELj2567483615ELm11ELj4294967295ELm7ELj2636928640ELm15ELj4022730752ELm18ELj1812433253EE8__lshiftB8ue170006ILm15EEENS_9enable_ifIXltT_Lm32EEjE4typeEj, symObjAddr: 0x5D84, symBinAddr: 0x10000960C, symSize: 0x1C }
  - { offsetInCU: 0x64D7, offset: 0x6E1B, size: 0x8, addend: 0x0, symName: __ZNSt3__123mersenne_twister_engineIjLm32ELm624ELm397ELm31ELj2567483615ELm11ELj4294967295ELm7ELj2636928640ELm15ELj4022730752ELm18ELj1812433253EE8__rshiftB8ue170006ILm18EEENS_9enable_ifIXltT_L_ZNS1_3_DtEEEjE4typeEj, symObjAddr: 0x5DA0, symBinAddr: 0x100009628, symSize: 0x18 }
  - { offsetInCU: 0x26, offset: 0x6E9C, size: 0x8, addend: 0x0, symName: _main, symObjAddr: 0x0, symBinAddr: 0x10000A6E0, symSize: 0x274 }
  - { offsetInCU: 0x2BE4, offset: 0x9A5A, size: 0x8, addend: 0x0, symName: _main, symObjAddr: 0x0, symBinAddr: 0x10000A6E0, symSize: 0x274 }
  - { offsetInCU: 0x2C4B, offset: 0x9AC1, size: 0x8, addend: 0x0, symName: __ZN3s215ModelC1Ev, symObjAddr: 0x274, symBinAddr: 0x10000A954, symSize: 0x2C }
  - { offsetInCU: 0x2C7D, offset: 0x9AF3, size: 0x8, addend: 0x0, symName: __ZN3s2110ControllerC1EPNS_5ModelE, symObjAddr: 0x2A0, symBinAddr: 0x10000A980, symSize: 0x34 }
  - { offsetInCU: 0x2CB3, offset: 0x9B29, size: 0x8, addend: 0x0, symName: __ZN3s215ModelC2Ev, symObjAddr: 0x2D4, symBinAddr: 0x10000A9B4, symSize: 0x14 }
  - { offsetInCU: 0x2CDB, offset: 0x9B51, size: 0x8, addend: 0x0, symName: __ZN3s2110ControllerC2EPNS_5ModelE, symObjAddr: 0x2E8, symBinAddr: 0x10000A9C8, symSize: 0x70 }
...
